(dp0
S'y'
p1
(lp2
cnumpy.core.multiarray
scalar
p3
(cnumpy
dtype
p4
(S'f8'
p5
I0
I1
tp6
Rp7
(I3
S'<'
p8
NNNI-1
I-1
I0
tp9
bS"\xe4]\xae\x02'`\xb0?"
p10
tp11
Rp12
ag3
(g7
S'\xef\xf8"\xf1Y\xfe\xa2?'
p13
tp14
Rp15
ag3
(g7
S'\xd2?\xcbC\x01\t\x97?'
p16
tp17
Rp18
ag3
(g7
S'\x96Q\xf6;8\x1c\x90?'
p19
tp20
Rp21
ag3
(g7
S'\x8c\xa9\xf7\xe9(\xe5\x8a?'
p22
tp23
Rp24
ag3
(g7
S'&\xbftRK\x05\x89?'
p25
tp26
Rp27
ag3
(g7
S'\xddR\x90\xd9S\xdd\x87?'
p28
tp29
Rp30
ag3
(g7
S'h:5m\xf3\x07\x87?'
p31
tp32
Rp33
asS'x'
p34
(lp35
I1
aI2
aI3
aI4
aI5
aI6
aI7
aI8
asS'label'
p36
S'baboon.png'
p37
s.