(dp0
S'y'
p1
(lp2
cnumpy.core.multiarray
scalar
p3
(cnumpy
dtype
p4
(S'f8'
p5
I0
I1
tp6
Rp7
(I3
S'<'
p8
NNNI-1
I-1
I0
tp9
bS'\x01U\xb60\xa3@\x90?'
p10
tp11
Rp12
ag3
(g7
S'\x1fPc\x01\x90$|?'
p13
tp14
Rp15
ag3
(g7
S'"\xde\x1f9\nFc?'
p16
tp17
Rp18
ag3
(g7
S'\xed\xb0h\xb5H%A?'
p19
tp20
Rp21
ag3
(g7
S':\xac\x94\xcc\x0e\x0c\x06?'
p22
tp23
Rp24
ag3
(g7
S'\xd8r\xe6\x12\xd8x\xfc>'
p25
tp26
Rp27
ag3
(g7
S'5\xf4\xe7X\x12\xa5\xf6>'
p28
tp29
Rp30
ag3
(g7
S'\xc8\xfa\xabr\xc0\xfc\xf2>'
p31
tp32
Rp33
asS'x'
p34
(lp35
I1
aI2
aI3
aI4
aI5
aI6
aI7
aI8
asS'label'
p36
S'bees.jpg'
p37
s.