(dp0
S'y'
p1
(lp2
cnumpy.core.multiarray
scalar
p3
(cnumpy
dtype
p4
(S'f8'
p5
I0
I1
tp6
Rp7
(I3
S'<'
p8
NNNI-1
I-1
I0
tp9
bS'"\x84\x85%E_\xce?'
p10
tp11
Rp12
ag3
(g7
S'\xe6\x10\xdc\xd2\xcf\xd3\xbb?'
p13
tp14
Rp15
ag3
(g7
S'Q\xff(0N\x14\xa6?'
p16
tp17
Rp18
ag3
(g7
S'Kn\xd3U\xfc\xda\x90?'
p19
tp20
Rp21
ag3
(g7
S'\xb6s\xfa\x84?\x17\x82?'
p22
tp23
Rp24
ag3
(g7
S'Q\x02\xfb\xaeh\xc9\x80?'
p25
tp26
Rp27
ag3
(g7
S'\xe7\xd9\xd2\xffs\x07\x80?'
p28
tp29
Rp30
ag3
(g7
S'\xb8h-\xabK\xf1~?'
p31
tp32
Rp33
asS'x'
p34
(lp35
I1
aI2
aI3
aI4
aI5
aI6
aI7
aI8
asS'label'
p36
S'bratan.jpg'
p37
s.