(dp0
S'y'
p1
(lp2
cnumpy.core.multiarray
scalar
p3
(cnumpy
dtype
p4
(S'f8'
p5
I0
I1
tp6
Rp7
(I3
S'<'
p8
NNNI-1
I-1
I0
tp9
bS'\x01\x9e(8\x92z\xb2?'
p10
tp11
Rp12
ag3
(g7
S'E/\xd01P\xbe\xa2?'
p13
tp14
Rp15
ag3
(g7
S'\xa9k\x1cD\xfe\xdd\x92?'
p16
tp17
Rp18
ag3
(g7
S'\xc8\xf9\xdci5\x84\x85?'
p19
tp20
Rp21
ag3
(g7
S'\x8cq\x97rl]\x80?'
p22
tp23
Rp24
ag3
(g7
S'G)\xc3a\x05\xa6~?'
p25
tp26
Rp27
ag3
(g7
S'd\xc4\xc9B\x1br}?'
p28
tp29
Rp30
ag3
(g7
S'$\xc0\xc4r\x8a\x94|?'
p31
tp32
Rp33
asS'x'
p34
(lp35
I1
aI2
aI3
aI4
aI5
aI6
aI7
aI8
asS'label'
p36
S'building.jpg'
p37
s.