(dp0
S'y'
p1
(lp2
cnumpy.core.multiarray
scalar
p3
(cnumpy
dtype
p4
(S'f8'
p5
I0
I1
tp6
Rp7
(I3
S'<'
p8
NNNI-1
I-1
I0
tp9
bS'\xf1\xc9\x87\x1e\r\x9b\xb8?'
p10
tp11
Rp12
ag3
(g7
S'\xa3&\xa4`\xb5b\xa8?'
p13
tp14
Rp15
ag3
(g7
S'\x1bUJ\xe6\xa3\x8d\x9a?'
p16
tp17
Rp18
ag3
(g7
S'i\xf9}\xbf\xdbkr?'
p19
tp20
Rp21
ag3
(g7
S'\xe2AW\x11\xbcIk?'
p22
tp23
Rp24
ag3
(g7
S'\xbf\xfdJ\xb7\xf7\xc5g?'
p25
tp26
Rp27
ag3
(g7
S'\r\x15z\x9f\xcf\xcbe?'
p28
tp29
Rp30
ag3
(g7
S'\xfa#\x11S\xb0\x1dd?'
p31
tp32
Rp33
asS'x'
p34
(lp35
I1
aI2
aI3
aI4
aI5
aI6
aI7
aI8
asS'label'
p36
S'dragon.png'
p37
s.