(dp0
S'y'
p1
(lp2
cnumpy.core.multiarray
scalar
p3
(cnumpy
dtype
p4
(S'f8'
p5
I0
I1
tp6
Rp7
(I3
S'<'
p8
NNNI-1
I-1
I0
tp9
bS'\xd0\xe2\xc5|%\\\xd1?'
p10
tp11
Rp12
ag3
(g7
S'\xc3\t\x8cP\xad\xbc\xbd?'
p13
tp14
Rp15
ag3
(g7
S'*\r`\r\xb6\x06\xa4?'
p16
tp17
Rp18
ag3
(g7
S'uq"\x0e\xabU\x81?'
p19
tp20
Rp21
ag3
(g7
S'\xb3\xfc\x93\x18\x02\x8fB?'
p22
tp23
Rp24
ag3
(g7
S'f\xf0\x1d7\xd0U@?'
p25
tp26
Rp27
ag3
(g7
S'\x15\x1b\x92\x8f_f>?'
p28
tp29
Rp30
ag3
(g7
S'\x97;\x18>e\xcc<?'
p31
tp32
Rp33
asS'x'
p34
(lp35
I1
aI2
aI3
aI4
aI5
aI6
aI7
aI8
asS'label'
p36
S'fly.jpeg'
p37
s.