(dp0
S'y'
p1
(lp2
cnumpy.core.multiarray
scalar
p3
(cnumpy
dtype
p4
(S'f8'
p5
I0
I1
tp6
Rp7
(I3
S'<'
p8
NNNI-1
I-1
I0
tp9
bS'\xa6\xf8\x7f\x86\xf2\xe4\xb8?'
p10
tp11
Rp12
ag3
(g7
S'\x91"\x1d\xb0\x10}\xa5?'
p13
tp14
Rp15
ag3
(g7
S'\xe0y\xa2\xa7\x7fX\x8d?'
p16
tp17
Rp18
ag3
(g7
S'""A\\\x10\xcbh?'
p19
tp20
Rp21
ag3
(g7
S'%\x1dN+"\x0c&?'
p22
tp23
Rp24
ag3
(g7
S'\xbcN\xf0\xc1DX\x1b?'
p25
tp26
Rp27
ag3
(g7
S'\x8aI\xa84`\xa0\x14?'
p28
tp29
Rp30
ag3
(g7
S'~\xd5&\x86Ir\x10?'
p31
tp32
Rp33
asS'x'
p34
(lp35
I1
aI2
aI3
aI4
aI5
aI6
aI7
aI8
asS'label'
p36
S'greenfrog.jpg'
p37
s.