(dp0
S'y'
p1
(lp2
cnumpy.core.multiarray
scalar
p3
(cnumpy
dtype
p4
(S'f8'
p5
I0
I1
tp6
Rp7
(I3
S'<'
p8
NNNI-1
I-1
I0
tp9
bS'\x12\xf5\x07\xa4\xdf\xe9\xc4?'
p10
tp11
Rp12
ag3
(g7
S'\xe0&\xc4\xe2\xa9\x0f\xb2?'
p13
tp14
Rp15
ag3
(g7
S'\xdfP<\xfd\x19\x91\x98?'
p16
tp17
Rp18
ag3
(g7
S'\x03qM\x0b\xd5\xecu?'
p19
tp20
Rp21
ag3
(g7
S'e\xb5\xa5\xdf(f@?'
p22
tp23
Rp24
ag3
(g7
S'\xfd\xba\x9b\xe2fu7?'
p25
tp26
Rp27
ag3
(g7
S'K\x0c\xb4\n)/3?'
p28
tp29
Rp30
ag3
(g7
S'r\xdbkcKg0?'
p31
tp32
Rp33
asS'x'
p34
(lp35
I1
aI2
aI3
aI4
aI5
aI6
aI7
aI8
asS'label'
p36
S'kick.jpg'
p37
s.