(dp0
S'y'
p1
(lp2
cnumpy.core.multiarray
scalar
p3
(cnumpy
dtype
p4
(S'f8'
p5
I0
I1
tp6
Rp7
(I3
S'<'
p8
NNNI-1
I-1
I0
tp9
bS'0\x98(\xe2\xd2x\xc3?'
p10
tp11
Rp12
ag3
(g7
S'\xa9\xe8\x8cJt\xb9\xb1?'
p13
tp14
Rp15
ag3
(g7
S'\xe6\xdd=\xc0\xe9:\x9b?'
p16
tp17
Rp18
ag3
(g7
S'\xd6b/\xbcU\x92\x83?'
p19
tp20
Rp21
ag3
(g7
S'_\xbe<\xe6\xf4\x00t?'
p22
tp23
Rp24
ag3
(g7
S'\xa1S\xb6kx\x89r?'
p25
tp26
Rp27
ag3
(g7
S'3\x8d-\xe9\x9e\xb2q?'
p28
tp29
Rp30
ag3
(g7
S'CBOr<\x17q?'
p31
tp32
Rp33
asS'x'
p34
(lp35
I1
aI2
aI3
aI4
aI5
aI6
aI7
aI8
asS'label'
p36
S'lions.jpg'
p37
s.