(dp0
S'y'
p1
(lp2
cnumpy.core.multiarray
scalar
p3
(cnumpy
dtype
p4
(S'f8'
p5
I0
I1
tp6
Rp7
(I3
S'<'
p8
NNNI-1
I-1
I0
tp9
bS've\xd3\x93\x99F\xaf?'
p10
tp11
Rp12
ag3
(g7
S'\xa8ec\xa3\xbc\xdd\x92?'
p13
tp14
Rp15
ag3
(g7
S'$I\x87)</q?'
p16
tp17
Rp18
ag3
(g7
S'*\x96#@c\x95I?'
p19
tp20
Rp21
ag3
(g7
S'H\x8c\x94.[\xb8B?'
p22
tp23
Rp24
ag3
(g7
S'4\xca5\x0e\xfe/@?'
p25
tp26
Rp27
ag3
(g7
S'p\xb1\x11W5\xe4<?'
p28
tp29
Rp30
ag3
(g7
S'\xcc\x84\xd3\x14\xc8J:?'
p31
tp32
Rp33
asS'x'
p34
(lp35
I1
aI2
aI3
aI4
aI5
aI6
aI7
aI8
asS'label'
p36
S'pingu.jpg'
p37
s.