(dp0
S'y'
p1
(lp2
cnumpy.core.multiarray
scalar
p3
(cnumpy
dtype
p4
(S'f8'
p5
I0
I1
tp6
Rp7
(I3
S'<'
p8
NNNI-1
I-1
I0
tp9
bS'.\xf6_\x90\xb8d\xc2?'
p10
tp11
Rp12
ag3
(g7
S'.\x9f\xc6\x1d\xd9\xa8\xb1?'
p13
tp14
Rp15
ag3
(g7
S'Mc\xe4\x84S\xcc\x9e?'
p16
tp17
Rp18
ag3
(g7
S'\x8ffK\x89\x13\xd0\x8c?'
p19
tp20
Rp21
ag3
(g7
S'\x00[\x069\xf6I\x82?'
p22
tp23
Rp24
ag3
(g7
S'\x91\xfb\x14\xcd/h\x80?'
p25
tp26
Rp27
ag3
(g7
S'P\xd0\x08\xa4}\xb6~?'
p28
tp29
Rp30
ag3
(g7
S'\xb3\xf9|n#2}?'
p31
tp32
Rp33
asS'x'
p34
(lp35
I1
aI2
aI3
aI4
aI5
aI6
aI7
aI8
asS'label'
p36
S'plane.jpg'
p37
s.