(dp0
S'y'
p1
(lp2
cnumpy.core.multiarray
scalar
p3
(cnumpy
dtype
p4
(S'f8'
p5
I0
I1
tp6
Rp7
(I3
S'<'
p8
NNNI-1
I-1
I0
tp9
bS'?\x81\x9c\xed;;\xc4?'
p10
tp11
Rp12
ag3
(g7
S'\xee8\xa2\xd3\xce\n\xb3?'
p13
tp14
Rp15
ag3
(g7
S']\xe7\xbdM\xc57\xa0?'
p16
tp17
Rp18
ag3
(g7
S'\x9fa\xc0G1\xc1\x8a?'
p19
tp20
Rp21
ag3
(g7
S'\xc9\x86A[M\x14|?'
p22
tp23
Rp24
ag3
(g7
S'\x07\xce\xbc+{dw?'
p25
tp26
Rp27
ag3
(g7
S'\x87\xef\tzc\xf2t?'
p28
tp29
Rp30
ag3
(g7
S'\x17\xef~-\xdc?s?'
p31
tp32
Rp33
asS'x'
p34
(lp35
I1
aI2
aI3
aI4
aI5
aI6
aI7
aI8
asS'label'
p36
S'raflesia.jpg'
p37
s.