(dp0
S'y'
p1
(lp2
cnumpy.core.multiarray
scalar
p3
(cnumpy
dtype
p4
(S'f8'
p5
I0
I1
tp6
Rp7
(I3
S'<'
p8
NNNI-1
I-1
I0
tp9
bS'\x1e\xee\x9c\xb0G\n\xc5?'
p10
tp11
Rp12
ag3
(g7
S'}6[-\xf7\xf7\xb1?'
p13
tp14
Rp15
ag3
(g7
S'yf\x95\x8a\xe3;\x98?'
p16
tp17
Rp18
ag3
(g7
S'Kt\xa02\xe2\xa3s?'
p19
tp20
Rp21
ag3
(g7
S',\x17\x82\xff\x9a\x94\x18?'
p22
tp23
Rp24
ag3
(g7
S'\xb6\xe6G\x11r\x06\x0e?'
p25
tp26
Rp27
ag3
(g7
S'\xca\xed\x02\xe4Y\t\x07?'
p28
tp29
Rp30
ag3
(g7
S']\xc9\x0c\x1af\xb0\x02?'
p31
tp32
Rp33
asS'x'
p34
(lp35
I1
aI2
aI3
aI4
aI5
aI6
aI7
aI8
asS'label'
p36
S'snowbird.jpg'
p37
s.